target datalayout = "e-m:e-p270:32:32-p271:32:32-p272:64:64-i64:64-i128:128-f80:128-n8:16:32:64-S128"
target triple = "x86_64-pc-linux-gnu"

%struct.pmix_tma = type { ptr, ptr, ptr, ptr, ptr, ptr, ptr, ptr }
%struct.pmix_proc = type { [256 x i8], i32 }
%struct.pmix_proc_info = type { %struct.pmix_proc, ptr, ptr, i32, i32, i8 }

; Function Attrs: inlinehint nounwind uwtable
define internal void @pmix_bfrops_base_tma_proc_info_construct(ptr noundef %0, ptr noundef %1) #1 {
  %3 = alloca ptr, align 8
  %4 = alloca ptr, align 8
  store ptr %0, ptr %3, align 8, !tbaa !138
  store ptr %1, ptr %4, align 8, !tbaa !8
  %5 = load ptr, ptr %3, align 8, !tbaa !138
  call void @llvm.memset.p0.i64(ptr align 8 %5, i8 0, i64 296, i1 false)
  %6 = load ptr, ptr %3, align 8, !tbaa !138
  %7 = getelementptr inbounds nuw %struct.pmix_proc_info, ptr %6, i32 0, i32 5
  store i8 0, ptr %7, align 8, !tbaa !140
  ret void
}

; Function Attrs: inlinehint nounwind uwtable
define internal void @pmix_tma_free(ptr noundef %0, ptr noundef %1) #1 {
  %3 = alloca ptr, align 8
  %4 = alloca ptr, align 8
  store ptr %0, ptr %3, align 8, !tbaa !8
  store ptr %1, ptr %4, align 8, !tbaa !51
  %5 = load ptr, ptr %3, align 8, !tbaa !8
  %6 = icmp ne ptr null, %5
  br i1 %6, label %7, label %13

7:                                                ; preds = %2
  %8 = load ptr, ptr %3, align 8, !tbaa !8
  %9 = getelementptr inbounds nuw %struct.pmix_tma, ptr %8, i32 0, i32 5
  %10 = load ptr, ptr %9, align 8, !tbaa !229
  %11 = load ptr, ptr %3, align 8, !tbaa !8
  %12 = load ptr, ptr %4, align 8, !tbaa !51
  call void %10(ptr noundef %11, ptr noundef %12)
  br label %15

13:                                               ; preds = %2
  %14 = load ptr, ptr %4, align 8, !tbaa !51
  call void @free(ptr noundef %14) #15
  br label %15

15:                                               ; preds = %13, %7
  ret void
}

; Function Attrs: inlinehint nounwind uwtable
define internal void @pmix_bfrops_base_tma_proc_info_destruct(ptr noundef %0, ptr noundef %1) #1 {
  %3 = alloca ptr, align 8
  %4 = alloca ptr, align 8
  store ptr %0, ptr %3, align 8, !tbaa !138
  store ptr %1, ptr %4, align 8, !tbaa !8
  %5 = load ptr, ptr %3, align 8, !tbaa !138
  %6 = getelementptr inbounds nuw %struct.pmix_proc_info, ptr %5, i32 0, i32 1
  %7 = load ptr, ptr %6, align 8, !tbaa !142
  %8 = icmp ne ptr null, %7
  br i1 %8, label %9, label %14

9:                                                ; preds = %2
  %10 = load ptr, ptr %4, align 8, !tbaa !8
  %11 = load ptr, ptr %3, align 8, !tbaa !138
  %12 = getelementptr inbounds nuw %struct.pmix_proc_info, ptr %11, i32 0, i32 1
  %13 = load ptr, ptr %12, align 8, !tbaa !142
  call void @pmix_tma_free(ptr noundef %10, ptr noundef %13)
  br label %14

14:                                               ; preds = %9, %2
  %15 = load ptr, ptr %3, align 8, !tbaa !138
  %16 = getelementptr inbounds nuw %struct.pmix_proc_info, ptr %15, i32 0, i32 2
  %17 = load ptr, ptr %16, align 8, !tbaa !143
  %18 = icmp ne ptr null, %17
  br i1 %18, label %19, label %24

19:                                               ; preds = %14
  %20 = load ptr, ptr %4, align 8, !tbaa !8
  %21 = load ptr, ptr %3, align 8, !tbaa !138
  %22 = getelementptr inbounds nuw %struct.pmix_proc_info, ptr %21, i32 0, i32 2
  %23 = load ptr, ptr %22, align 8, !tbaa !143
  call void @pmix_tma_free(ptr noundef %20, ptr noundef %23)
  br label %24

24:                                               ; preds = %19, %14
  %25 = load ptr, ptr %3, align 8, !tbaa !138
  %26 = load ptr, ptr %4, align 8, !tbaa !8
  call void @pmix_bfrops_base_tma_proc_info_construct(ptr noundef %25, ptr noundef %26)
  ret void
}

; Function Attrs: inlinehint nounwind uwtable
define internal void @pmix_bfrops_base_tma_proc_info_free(ptr noundef %0, i64 noundef %1, ptr noundef %2) #1 {
  %4 = alloca ptr, align 8
  %5 = alloca i64, align 8
  %6 = alloca ptr, align 8
  %7 = alloca i64, align 8
  store ptr %0, ptr %4, align 8, !tbaa !138
  store i64 %1, ptr %5, align 8, !tbaa !30
  store ptr %2, ptr %6, align 8, !tbaa !8
  %8 = load ptr, ptr %4, align 8, !tbaa !138
  %9 = icmp ne ptr null, %8
  br i1 %9, label %10, label %27

10:                                               ; preds = %3
  call void @llvm.lifetime.start.p0(i64 8, ptr %7) #15
  store i64 0, ptr %7, align 8, !tbaa !30
  br label %11

11:                                               ; preds = %21, %10
  %12 = load i64, ptr %7, align 8, !tbaa !30
  %13 = load i64, ptr %5, align 8, !tbaa !30
  %14 = icmp ult i64 %12, %13
  br i1 %14, label %16, label %15

15:                                               ; preds = %11
  call void @llvm.lifetime.end.p0(i64 8, ptr %7) #15
  br label %24

16:                                               ; preds = %11
  %17 = load ptr, ptr %4, align 8, !tbaa !138
  %18 = load i64, ptr %7, align 8, !tbaa !30
  %19 = getelementptr inbounds nuw %struct.pmix_proc_info, ptr %17, i64 %18
  %20 = load ptr, ptr %6, align 8, !tbaa !8
  call void @pmix_bfrops_base_tma_proc_info_destruct(ptr noundef %19, ptr noundef %20)
  br label %21

21:                                               ; preds = %16
  %22 = load i64, ptr %7, align 8, !tbaa !30
  %23 = add i64 %22, 1
  store i64 %23, ptr %7, align 8, !tbaa !30
  br label %11, !llvm.loop !145

24:                                               ; preds = %15
  %25 = load ptr, ptr %6, align 8, !tbaa !8
  %26 = load ptr, ptr %4, align 8, !tbaa !138
  call void @pmix_tma_free(ptr noundef %25, ptr noundef %26)
  br label %27

27:                                               ; preds = %24, %3
  ret void
}

; Function Attrs: nounwind uwtable
define void @PMIx_Proc_info_free(ptr noundef %0, i64 noundef %1) #0 {
  %3 = alloca ptr, align 8
  %4 = alloca i64, align 8
  store ptr %0, ptr %3, align 8, !tbaa !138
  store i64 %1, ptr %4, align 8, !tbaa !30
  %5 = load ptr, ptr %3, align 8, !tbaa !138
  %6 = load i64, ptr %4, align 8, !tbaa !30
  call void @pmix_bfrops_base_tma_proc_info_free(ptr noundef %5, i64 noundef %6, ptr noundef null)
  ret void
}