; Function Attrs: nounwind uwtable
define void @PMIx_Proc_info_free(ptr noundef captures(address_is_null) %0, i64 noundef %1) local_unnamed_addr #6 {
  %.not.i = icmp eq ptr %0, null
  br i1 %.not.i, label %pmix_bfrops_base_tma_proc_info_free.exit, label %.preheader.i

.preheader.i:                                     ; preds = %2
  %.not2.i = icmp eq i64 %1, 0
  br i1 %.not2.i, label %._crit_edge.i, label %.lr.ph.i

._crit_edge.i:                                    ; preds = %pmix_bfrops_base_tma_proc_info_destruct.exit.i, %.preheader.i
  tail call void @free(ptr noundef nonnull %0) #44
  br label %pmix_bfrops_base_tma_proc_info_free.exit

.lr.ph.i:                                         ; preds = %.preheader.i, %pmix_bfrops_base_tma_proc_info_destruct.exit.i
  %.01.i = phi i64 [ %11, %pmix_bfrops_base_tma_proc_info_destruct.exit.i ], [ 0, %.preheader.i ]
  %3 = getelementptr inbounds nuw %struct.pmix_proc_info, ptr %0, i64 %.01.i
  %4 = getelementptr inbounds nuw i8, ptr %3, i64 264
  %5 = load ptr, ptr %4, align 8, !tbaa !28
  %.not.i.i = icmp eq ptr %5, null
  br i1 %.not.i.i, label %7, label %6

6:                                                ; preds = %.lr.ph.i
  tail call void @free(ptr noundef nonnull %5) #44
  br label %7

7:                                                ; preds = %6, %.lr.ph.i
  %8 = getelementptr inbounds nuw i8, ptr %3, i64 272
  %9 = load ptr, ptr %8, align 8, !tbaa !30
  %.not9.i.i = icmp eq ptr %9, null
  br i1 %.not9.i.i, label %pmix_bfrops_base_tma_proc_info_destruct.exit.i, label %10

10:                                               ; preds = %7
  tail call void @free(ptr noundef nonnull %9) #44
  br label %pmix_bfrops_base_tma_proc_info_destruct.exit.i

pmix_bfrops_base_tma_proc_info_destruct.exit.i:   ; preds = %10, %7
  tail call void @llvm.memset.p0.i64(ptr noundef nonnull align 8 dereferenceable(296) %3, i8 0, i64 296, i1 false)
  %11 = add nuw i64 %.01.i, 1
  %exitcond.not.i = icmp eq i64 %11, %1
  br i1 %exitcond.not.i, label %._crit_edge.i, label %.lr.ph.i, !llvm.loop !108

pmix_bfrops_base_tma_proc_info_free.exit:         ; preds = %2, %._crit_edge.i
  ret void
}